; Function Attrs: nounwind uwtable
define ptr @d2i_DSA_PUBKEY(ptr noundef captures(address_is_null) %0, ptr noundef captures(none) %1, i64 noundef %2) local_unnamed_addr #0 {
  %4 = alloca ptr, align 8
  call void @llvm.lifetime.start.p0(i64 8, ptr nonnull %4) #9
  %5 = load ptr, ptr %1, align 8, !tbaa !46
  store ptr %5, ptr %4, align 8, !tbaa !46
  %6 = call fastcc ptr @d2i_PUBKEY_int(ptr noundef null, ptr noundef nonnull %4, i64 noundef %2, ptr noundef null, ptr noundef null, i32 noundef 1)
  %7 = icmp eq ptr %6, null
  br i1 %7, label %15, label %8

8:                                                ; preds = %3
  %9 = tail call ptr @EVP_PKEY_get1_DSA(ptr noundef nonnull %6) #9
  tail call void @EVP_PKEY_free(ptr noundef nonnull %6) #9
  %10 = icmp eq ptr %9, null
  br i1 %10, label %15, label %11

11:                                               ; preds = %8
  %12 = load ptr, ptr %4, align 8, !tbaa !46
  store ptr %12, ptr %1, align 8, !tbaa !46
  %.not = icmp eq ptr %0, null
  br i1 %.not, label %15, label %13

13:                                               ; preds = %11
  %14 = load ptr, ptr %0, align 8, !tbaa !58
  tail call void @DSA_free(ptr noundef %14) #9
  store ptr %9, ptr %0, align 8, !tbaa !58
  br label %15

15:                                               ; preds = %11, %13, %8, %3
  %.0 = phi ptr [ null, %3 ], [ null, %8 ], [ %9, %13 ], [ %9, %11 ]
  call void @llvm.lifetime.end.p0(i64 8, ptr nonnull %4) #9
  ret ptr %.0
}